target datalayout = "e-m:e-p270:32:32-p271:32:32-p272:64:64-i64:64-i128:128-f80:128-n8:16:32:64-S128"
target triple = "x86_64-pc-linux-gnu"

; Function Attrs: mustprogress nounwind uwtable
define linkonce_odr noundef i32 @_ZNSt14numeric_limitsIjE3maxEv() #0 comdat align 2 {
  ret i32 -1
}

; Function Attrs: mustprogress nounwind uwtable
define linkonce_odr noundef zeroext i16 @_ZNSt14numeric_limitsItE3maxEv() #0 comdat align 2 {
  ret i16 -1
}

; Function Attrs: mustprogress uwtable
define noundef ptr @_ZN8LightGBM11MultiValBin23CreateMultiValSparseBinEiid(i32 noundef %0, i32 noundef %1, double noundef %2) #1 align 2 personality ptr @__gxx_personality_v0 {
  %4 = alloca ptr, align 8
  %5 = alloca i32, align 4
  %6 = alloca i32, align 4
  %7 = alloca double, align 8
  %8 = alloca i64, align 8
  %9 = alloca ptr, align 8
  %10 = alloca i32, align 4
  %11 = alloca i32, align 4
  store i32 %0, ptr %5, align 4, !tbaa !11
  store i32 %1, ptr %6, align 4, !tbaa !11
  store double %2, ptr %7, align 8, !tbaa !115
  call void @llvm.lifetime.start.p0(i64 8, ptr %8) #5
  %12 = load double, ptr %7, align 8, !tbaa !115
  %13 = fmul double %12, 1.100000e+00
  %14 = load i32, ptr %5, align 4, !tbaa !11
  %15 = sitofp i32 %14 to double
  %16 = fmul double %13, %15
  %17 = fptoui double %16 to i64
  store i64 %17, ptr %8, align 8, !tbaa !37
  %18 = load i64, ptr %8, align 8, !tbaa !37
  %19 = call noundef zeroext i16 @_ZNSt14numeric_limitsItE3maxEv() #5
  %20 = zext i16 %19 to i64
  %21 = icmp ule i64 %18, %20
  br i1 %21, label %22, label %58

22:                                               ; preds = %3
  %23 = load i32, ptr %6, align 4, !tbaa !11
  %24 = icmp sle i32 %23, 256
  br i1 %24, label %25, label %35

25:                                               ; preds = %22
  %26 = call noalias noundef nonnull ptr @_Znwm(i64 noundef 144) #29
  %27 = load i32, ptr %5, align 4, !tbaa !11
  %28 = load i32, ptr %6, align 4, !tbaa !11
  %29 = load double, ptr %7, align 8, !tbaa !115
  invoke void @_ZN8LightGBM17MultiValSparseBinIthEC2Eiid(ptr noundef nonnull align 8 dereferenceable(144) %26, i32 noundef %27, i32 noundef %28, double noundef %29)
          to label %30 unwind label %31

30:                                               ; preds = %25
  store ptr %26, ptr %4, align 8
  store i32 1, ptr %11, align 4
  br label %135

31:                                               ; preds = %25
  %32 = landingpad { ptr, i32 }
          cleanup
  %33 = extractvalue { ptr, i32 } %32, 0
  store ptr %33, ptr %9, align 8
  %34 = extractvalue { ptr, i32 } %32, 1
  store i32 %34, ptr %10, align 4
  call void @_ZdlPv(ptr noundef %26) #28
  br label %137

35:                                               ; preds = %22
  %36 = load i32, ptr %6, align 4, !tbaa !11
  %37 = icmp sle i32 %36, 65536
  br i1 %37, label %38, label %48

38:                                               ; preds = %35
  %39 = call noalias noundef nonnull ptr @_Znwm(i64 noundef 144) #29
  %40 = load i32, ptr %5, align 4, !tbaa !11
  %41 = load i32, ptr %6, align 4, !tbaa !11
  %42 = load double, ptr %7, align 8, !tbaa !115
  invoke void @_ZN8LightGBM17MultiValSparseBinIttEC2Eiid(ptr noundef nonnull align 8 dereferenceable(144) %39, i32 noundef %40, i32 noundef %41, double noundef %42)
          to label %43 unwind label %44

43:                                               ; preds = %38
  store ptr %39, ptr %4, align 8
  store i32 1, ptr %11, align 4
  br label %135

44:                                               ; preds = %38
  %45 = landingpad { ptr, i32 }
          cleanup
  %46 = extractvalue { ptr, i32 } %45, 0
  store ptr %46, ptr %9, align 8
  %47 = extractvalue { ptr, i32 } %45, 1
  store i32 %47, ptr %10, align 4
  call void @_ZdlPv(ptr noundef %39) #28
  br label %137

48:                                               ; preds = %35
  %49 = call noalias noundef nonnull ptr @_Znwm(i64 noundef 144) #29
  %50 = load i32, ptr %5, align 4, !tbaa !11
  %51 = load i32, ptr %6, align 4, !tbaa !11
  %52 = load double, ptr %7, align 8, !tbaa !115
  invoke void @_ZN8LightGBM17MultiValSparseBinItjEC2Eiid(ptr noundef nonnull align 8 dereferenceable(144) %49, i32 noundef %50, i32 noundef %51, double noundef %52)
          to label %53 unwind label %54

53:                                               ; preds = %48
  store ptr %49, ptr %4, align 8
  store i32 1, ptr %11, align 4
  br label %135

54:                                               ; preds = %48
  %55 = landingpad { ptr, i32 }
          cleanup
  %56 = extractvalue { ptr, i32 } %55, 0
  store ptr %56, ptr %9, align 8
  %57 = extractvalue { ptr, i32 } %55, 1
  store i32 %57, ptr %10, align 4
  call void @_ZdlPv(ptr noundef %49) #28
  br label %137

58:                                               ; preds = %3
  %59 = load i64, ptr %8, align 8, !tbaa !37
  %60 = call noundef i32 @_ZNSt14numeric_limitsIjE3maxEv() #5
  %61 = zext i32 %60 to i64
  %62 = icmp ule i64 %59, %61
  br i1 %62, label %63, label %99

63:                                               ; preds = %58
  %64 = load i32, ptr %6, align 4, !tbaa !11
  %65 = icmp sle i32 %64, 256
  br i1 %65, label %66, label %76

66:                                               ; preds = %63
  %67 = call noalias noundef nonnull ptr @_Znwm(i64 noundef 144) #29
  %68 = load i32, ptr %5, align 4, !tbaa !11
  %69 = load i32, ptr %6, align 4, !tbaa !11
  %70 = load double, ptr %7, align 8, !tbaa !115
  invoke void @_ZN8LightGBM17MultiValSparseBinIjhEC2Eiid(ptr noundef nonnull align 8 dereferenceable(144) %67, i32 noundef %68, i32 noundef %69, double noundef %70)
          to label %71 unwind label %72

71:                                               ; preds = %66
  store ptr %67, ptr %4, align 8
  store i32 1, ptr %11, align 4
  br label %135

72:                                               ; preds = %66
  %73 = landingpad { ptr, i32 }
          cleanup
  %74 = extractvalue { ptr, i32 } %73, 0
  store ptr %74, ptr %9, align 8
  %75 = extractvalue { ptr, i32 } %73, 1
  store i32 %75, ptr %10, align 4
  call void @_ZdlPv(ptr noundef %67) #28
  br label %137

76:                                               ; preds = %63
  %77 = load i32, ptr %6, align 4, !tbaa !11
  %78 = icmp sle i32 %77, 65536
  br i1 %78, label %79, label %89

79:                                               ; preds = %76
  %80 = call noalias noundef nonnull ptr @_Znwm(i64 noundef 144) #29
  %81 = load i32, ptr %5, align 4, !tbaa !11
  %82 = load i32, ptr %6, align 4, !tbaa !11
  %83 = load double, ptr %7, align 8, !tbaa !115
  invoke void @_ZN8LightGBM17MultiValSparseBinIjtEC2Eiid(ptr noundef nonnull align 8 dereferenceable(144) %80, i32 noundef %81, i32 noundef %82, double noundef %83)
          to label %84 unwind label %85

84:                                               ; preds = %79
  store ptr %80, ptr %4, align 8
  store i32 1, ptr %11, align 4
  br label %135

85:                                               ; preds = %79
  %86 = landingpad { ptr, i32 }
          cleanup
  %87 = extractvalue { ptr, i32 } %86, 0
  store ptr %87, ptr %9, align 8
  %88 = extractvalue { ptr, i32 } %86, 1
  store i32 %88, ptr %10, align 4
  call void @_ZdlPv(ptr noundef %80) #28
  br label %137

89:                                               ; preds = %76
  %90 = call noalias noundef nonnull ptr @_Znwm(i64 noundef 144) #29
  %91 = load i32, ptr %5, align 4, !tbaa !11
  %92 = load i32, ptr %6, align 4, !tbaa !11
  %93 = load double, ptr %7, align 8, !tbaa !115
  invoke void @_ZN8LightGBM17MultiValSparseBinIjjEC2Eiid(ptr noundef nonnull align 8 dereferenceable(144) %90, i32 noundef %91, i32 noundef %92, double noundef %93)
          to label %94 unwind label %95

94:                                               ; preds = %89
  store ptr %90, ptr %4, align 8
  store i32 1, ptr %11, align 4
  br label %135

95:                                               ; preds = %89
  %96 = landingpad { ptr, i32 }
          cleanup
  %97 = extractvalue { ptr, i32 } %96, 0
  store ptr %97, ptr %9, align 8
  %98 = extractvalue { ptr, i32 } %96, 1
  store i32 %98, ptr %10, align 4
  call void @_ZdlPv(ptr noundef %90) #28
  br label %137

99:                                               ; preds = %58
  %100 = load i32, ptr %6, align 4, !tbaa !11
  %101 = icmp sle i32 %100, 256
  br i1 %101, label %102, label %112

102:                                              ; preds = %99
  %103 = call noalias noundef nonnull ptr @_Znwm(i64 noundef 144) #29
  %104 = load i32, ptr %5, align 4, !tbaa !11
  %105 = load i32, ptr %6, align 4, !tbaa !11
  %106 = load double, ptr %7, align 8, !tbaa !115
  invoke void @_ZN8LightGBM17MultiValSparseBinImhEC2Eiid(ptr noundef nonnull align 8 dereferenceable(144) %103, i32 noundef %104, i32 noundef %105, double noundef %106)
          to label %107 unwind label %108

107:                                              ; preds = %102
  store ptr %103, ptr %4, align 8
  store i32 1, ptr %11, align 4
  br label %135

108:                                              ; preds = %102
  %109 = landingpad { ptr, i32 }
          cleanup
  %110 = extractvalue { ptr, i32 } %109, 0
  store ptr %110, ptr %9, align 8
  %111 = extractvalue { ptr, i32 } %109, 1
  store i32 %111, ptr %10, align 4
  call void @_ZdlPv(ptr noundef %103) #28
  br label %137

112:                                              ; preds = %99
  %113 = load i32, ptr %6, align 4, !tbaa !11
  %114 = icmp sle i32 %113, 65536
  br i1 %114, label %115, label %125

115:                                              ; preds = %112
  %116 = call noalias noundef nonnull ptr @_Znwm(i64 noundef 144) #29
  %117 = load i32, ptr %5, align 4, !tbaa !11
  %118 = load i32, ptr %6, align 4, !tbaa !11
  %119 = load double, ptr %7, align 8, !tbaa !115
  invoke void @_ZN8LightGBM17MultiValSparseBinImtEC2Eiid(ptr noundef nonnull align 8 dereferenceable(144) %116, i32 noundef %117, i32 noundef %118, double noundef %119)
          to label %120 unwind label %121

120:                                              ; preds = %115
  store ptr %116, ptr %4, align 8
  store i32 1, ptr %11, align 4
  br label %135

121:                                              ; preds = %115
  %122 = landingpad { ptr, i32 }
          cleanup
  %123 = extractvalue { ptr, i32 } %122, 0
  store ptr %123, ptr %9, align 8
  %124 = extractvalue { ptr, i32 } %122, 1
  store i32 %124, ptr %10, align 4
  call void @_ZdlPv(ptr noundef %116) #28
  br label %137

125:                                              ; preds = %112
  %126 = call noalias noundef nonnull ptr @_Znwm(i64 noundef 144) #29
  %127 = load i32, ptr %5, align 4, !tbaa !11
  %128 = load i32, ptr %6, align 4, !tbaa !11
  %129 = load double, ptr %7, align 8, !tbaa !115
  invoke void @_ZN8LightGBM17MultiValSparseBinImjEC2Eiid(ptr noundef nonnull align 8 dereferenceable(144) %126, i32 noundef %127, i32 noundef %128, double noundef %129)
          to label %130 unwind label %131

130:                                              ; preds = %125
  store ptr %126, ptr %4, align 8
  store i32 1, ptr %11, align 4
  br label %135

131:                                              ; preds = %125
  %132 = landingpad { ptr, i32 }
          cleanup
  %133 = extractvalue { ptr, i32 } %132, 0
  store ptr %133, ptr %9, align 8
  %134 = extractvalue { ptr, i32 } %132, 1
  store i32 %134, ptr %10, align 4
  call void @_ZdlPv(ptr noundef %126) #28
  br label %137

135:                                              ; preds = %130, %120, %107, %94, %84, %71, %53, %43, %30
  call void @llvm.lifetime.end.p0(i64 8, ptr %8) #5
  %136 = load ptr, ptr %4, align 8
  ret ptr %136

137:                                              ; preds = %131, %121, %108, %95, %85, %72, %54, %44, %31
  call void @llvm.lifetime.end.p0(i64 8, ptr %8) #5
  br label %138

138:                                              ; preds = %137
  %139 = load ptr, ptr %9, align 8
  %140 = load i32, ptr %10, align 4
  %141 = insertvalue { ptr, i32 } poison, ptr %139, 0
  %142 = insertvalue { ptr, i32 } %141, i32 %140, 1
  resume { ptr, i32 } %142
}