; Function Attrs: mustprogress uwtable
define noundef nonnull ptr @_ZN8LightGBM11MultiValBin23CreateMultiValSparseBinEiid(i32 noundef %0, i32 noundef %1, double noundef %2) local_unnamed_addr #1 align 2 personality ptr @__gxx_personality_v0 {
  %4 = fmul double %2, 1.100000e+00
  %5 = sitofp i32 %0 to double
  %6 = fmul double %4, %5
  %7 = fptoui double %6 to i64
  %.not = icmp ugt i64 %7, 65535
  br i1 %.not, label %23, label %8

8:                                                ; preds = %3
  %9 = icmp slt i32 %1, 257
  br i1 %9, label %10, label %14

10:                                               ; preds = %8
  %11 = tail call noalias noundef nonnull dereferenceable(144) ptr @_Znwm(i64 noundef 144) #38
  invoke void @_ZN8LightGBM17MultiValSparseBinIthEC2Eiid(ptr noundef nonnull align 8 dereferenceable(144) %11, i32 noundef %0, i32 noundef %1, double noundef %2)
          to label %53 unwind label %12

12:                                               ; preds = %10
  %13 = landingpad { ptr, i32 }
          cleanup
  br label %54

14:                                               ; preds = %8
  %15 = icmp samesign ult i32 %1, 65537
  %16 = tail call noalias noundef nonnull dereferenceable(144) ptr @_Znwm(i64 noundef 144) #38
  br i1 %15, label %17, label %20

17:                                               ; preds = %14
  invoke void @_ZN8LightGBM17MultiValSparseBinIttEC2Eiid(ptr noundef nonnull align 8 dereferenceable(144) %16, i32 noundef %0, i32 noundef %1, double noundef %2)
          to label %53 unwind label %18

18:                                               ; preds = %17
  %19 = landingpad { ptr, i32 }
          cleanup
  br label %54

20:                                               ; preds = %14
  invoke void @_ZN8LightGBM17MultiValSparseBinItjEC2Eiid(ptr noundef nonnull align 8 dereferenceable(144) %16, i32 noundef %0, i32 noundef %1, double noundef %2)
          to label %53 unwind label %21

21:                                               ; preds = %20
  %22 = landingpad { ptr, i32 }
          cleanup
  br label %54

23:                                               ; preds = %3
  %.not43 = icmp ugt i64 %7, 4294967295
  %24 = icmp slt i32 %1, 257
  br i1 %.not43, label %39, label %25

25:                                               ; preds = %23
  br i1 %24, label %26, label %30

26:                                               ; preds = %25
  %27 = tail call noalias noundef nonnull dereferenceable(144) ptr @_Znwm(i64 noundef 144) #38
  invoke void @_ZN8LightGBM17MultiValSparseBinIjhEC2Eiid(ptr noundef nonnull align 8 dereferenceable(144) %27, i32 noundef %0, i32 noundef %1, double noundef %2)
          to label %53 unwind label %28

28:                                               ; preds = %26
  %29 = landingpad { ptr, i32 }
          cleanup
  br label %54

30:                                               ; preds = %25
  %31 = icmp samesign ult i32 %1, 65537
  %32 = tail call noalias noundef nonnull dereferenceable(144) ptr @_Znwm(i64 noundef 144) #38
  br i1 %31, label %33, label %36

33:                                               ; preds = %30
  invoke void @_ZN8LightGBM17MultiValSparseBinIjtEC2Eiid(ptr noundef nonnull align 8 dereferenceable(144) %32, i32 noundef %0, i32 noundef %1, double noundef %2)
          to label %53 unwind label %34

34:                                               ; preds = %33
  %35 = landingpad { ptr, i32 }
          cleanup
  br label %54

36:                                               ; preds = %30
  invoke void @_ZN8LightGBM17MultiValSparseBinIjjEC2Eiid(ptr noundef nonnull align 8 dereferenceable(144) %32, i32 noundef %0, i32 noundef %1, double noundef %2)
          to label %53 unwind label %37

37:                                               ; preds = %36
  %38 = landingpad { ptr, i32 }
          cleanup
  br label %54

39:                                               ; preds = %23
  br i1 %24, label %40, label %44

40:                                               ; preds = %39
  %41 = tail call noalias noundef nonnull dereferenceable(144) ptr @_Znwm(i64 noundef 144) #38
  invoke void @_ZN8LightGBM17MultiValSparseBinImhEC2Eiid(ptr noundef nonnull align 8 dereferenceable(144) %41, i32 noundef %0, i32 noundef %1, double noundef %2)
          to label %53 unwind label %42

42:                                               ; preds = %40
  %43 = landingpad { ptr, i32 }
          cleanup
  br label %54

44:                                               ; preds = %39
  %45 = icmp samesign ult i32 %1, 65537
  %46 = tail call noalias noundef nonnull dereferenceable(144) ptr @_Znwm(i64 noundef 144) #38
  br i1 %45, label %47, label %50

47:                                               ; preds = %44
  invoke void @_ZN8LightGBM17MultiValSparseBinImtEC2Eiid(ptr noundef nonnull align 8 dereferenceable(144) %46, i32 noundef %0, i32 noundef %1, double noundef %2)
          to label %53 unwind label %48

48:                                               ; preds = %47
  %49 = landingpad { ptr, i32 }
          cleanup
  br label %54

50:                                               ; preds = %44
  invoke void @_ZN8LightGBM17MultiValSparseBinImjEC2Eiid(ptr noundef nonnull align 8 dereferenceable(144) %46, i32 noundef %0, i32 noundef %1, double noundef %2)
          to label %53 unwind label %51

51:                                               ; preds = %50
  %52 = landingpad { ptr, i32 }
          cleanup
  br label %54

53:                                               ; preds = %50, %47, %40, %36, %33, %26, %20, %17, %10
  %.040 = phi ptr [ %11, %10 ], [ %16, %17 ], [ %16, %20 ], [ %27, %26 ], [ %32, %33 ], [ %32, %36 ], [ %41, %40 ], [ %46, %47 ], [ %46, %50 ]
  ret ptr %.040

54:                                               ; preds = %51, %48, %42, %37, %34, %28, %21, %18, %12
  %.sink = phi ptr [ %46, %51 ], [ %46, %48 ], [ %41, %42 ], [ %32, %37 ], [ %32, %34 ], [ %27, %28 ], [ %16, %21 ], [ %16, %18 ], [ %11, %12 ]
  %.pn = phi { ptr, i32 } [ %52, %51 ], [ %49, %48 ], [ %43, %42 ], [ %38, %37 ], [ %35, %34 ], [ %29, %28 ], [ %22, %21 ], [ %19, %18 ], [ %13, %12 ]
  tail call void @_ZdlPv(ptr noundef nonnull %.sink) #37
  resume { ptr, i32 } %.pn
}